target datalayout = "e-m:e-p270:32:32-p271:32:32-p272:64:64-i64:64-i128:128-f80:128-n8:16:32:64-S128"
target triple = "x86_64-pc-linux-gnu"

%class.ZPhysicalMemory = type { %class.GrowableArrayCHeap }
%class.GrowableArrayCHeap = type { %class.GrowableArrayWithAllocator }
%class.GrowableArrayWithAllocator = type { %class.GrowableArrayView }
%class.GrowableArrayView = type { %class.GrowableArrayBase, ptr }
%class.GrowableArrayBase = type { i32, i32 }
%class.ZPhysicalMemorySegment = type <{ i64, i64, i8, [7 x i8] }>
%class.ZPhysicalMemoryManager = type { %class.ZPhysicalMemoryBacking, %class.ZMemoryManager }
%class.ZPhysicalMemoryBacking = type <{ i32, [4 x i8], i64, i64, i64, i64, i8, [7 x i8] }>
%class.ZMemoryManager = type { %class.ZLock, %class.ZList, %"struct.ZMemoryManager::Callbacks" }
%class.ZLock = type { %class.PlatformMutex }
%class.PlatformMutex = type { %union.pthread_mutex_t }
%union.pthread_mutex_t = type { %struct.__pthread_mutex_s }
%struct.__pthread_mutex_s = type { i32, i32, i32, i32, i32, i16, i16, %struct.__pthread_internal_list }
%struct.__pthread_internal_list = type { ptr, ptr }
%class.ZList = type { %class.ZListNode, i64 }
%class.ZListNode = type { ptr, ptr }
%"struct.ZMemoryManager::Callbacks" = type { ptr, ptr, ptr, ptr, ptr, ptr }

; Function Attrs: mustprogress nounwind uwtable
define linkonce_odr hidden noundef i64 @_Z14to_zoffset_end7zoffsetm(i64 noundef %0, i64 noundef %1) #1 comdat {
  %3 = alloca i64, align 8
  %4 = alloca i64, align 8
  %5 = alloca i64, align 8
  store i64 %0, ptr %3, align 8
  store i64 %1, ptr %4, align 8
  %6 = load i64, ptr %3, align 8
  %7 = call noundef i64 @_Z6untype7zoffset(i64 noundef %6)
  %8 = load i64, ptr %4, align 8
  %9 = add i64 %7, %8
  store i64 %9, ptr %5, align 8
  %10 = load i64, ptr %5, align 8
  ret i64 %10
}

; Function Attrs: mustprogress nounwind uwtable
define linkonce_odr hidden void @_ZN17GrowableArrayViewI22ZPhysicalMemorySegmentE6at_putEiRKS0_(ptr noundef nonnull align 8 dereferenceable(16) %0, i32 noundef %1, ptr noundef nonnull align 8 dereferenceable(17) %2) #1 comdat align 2 {
  %4 = alloca ptr, align 8
  %5 = alloca i32, align 4
  %6 = alloca ptr, align 8
  store ptr %0, ptr %4, align 8
  store i32 %1, ptr %5, align 4
  store ptr %2, ptr %6, align 8
  %7 = load ptr, ptr %4, align 8
  %8 = load ptr, ptr %6, align 8
  %9 = getelementptr inbounds %class.GrowableArrayView, ptr %7, i32 0, i32 1
  %10 = load ptr, ptr %9, align 8
  %11 = load i32, ptr %5, align 4
  %12 = sext i32 %11 to i64
  %13 = getelementptr inbounds %class.ZPhysicalMemorySegment, ptr %10, i64 %12
  call void @llvm.memcpy.p0.p0.i64(ptr align 8 %13, ptr align 8 %8, i64 17, i1 false)
  ret void
}

; Function Attrs: mustprogress nounwind uwtable
define linkonce_odr hidden void @_ZN22ZPhysicalMemorySegmentC2E7zoffsetmb(ptr noundef nonnull align 8 dereferenceable(17) %0, i64 noundef %1, i64 noundef %2, i1 noundef zeroext %3) unnamed_addr #1 comdat align 2 {
  %5 = alloca ptr, align 8
  %6 = alloca i64, align 8
  %7 = alloca i64, align 8
  %8 = alloca i8, align 1
  store ptr %0, ptr %5, align 8
  store i64 %1, ptr %6, align 8
  store i64 %2, ptr %7, align 8
  %9 = zext i1 %3 to i8
  store i8 %9, ptr %8, align 1
  %10 = load ptr, ptr %5, align 8
  %11 = getelementptr inbounds %class.ZPhysicalMemorySegment, ptr %10, i32 0, i32 0
  %12 = load i64, ptr %6, align 8
  store i64 %12, ptr %11, align 8
  %13 = getelementptr inbounds %class.ZPhysicalMemorySegment, ptr %10, i32 0, i32 1
  %14 = load i64, ptr %6, align 8
  %15 = load i64, ptr %7, align 8
  %16 = call noundef i64 @_Z14to_zoffset_end7zoffsetm(i64 noundef %14, i64 noundef %15)
  store i64 %16, ptr %13, align 8
  %17 = getelementptr inbounds %class.ZPhysicalMemorySegment, ptr %10, i32 0, i32 2
  %18 = load i8, ptr %8, align 1
  %19 = trunc i8 %18 to i1
  %20 = zext i1 %19 to i8
  store i8 %20, ptr %17, align 8
  ret void
}

; Function Attrs: mustprogress nounwind uwtable
define linkonce_odr hidden noundef i64 @_Z10to_zoffsetm(i64 noundef %0) #1 comdat {
  %2 = alloca i64, align 8
  store i64 %0, ptr %2, align 8
  %3 = load i64, ptr %2, align 8
  ret i64 %3
}

; Function Attrs: mustprogress nounwind uwtable
define linkonce_odr hidden noundef i64 @_Z6untype7zoffset(i64 noundef %0) #1 comdat {
  %2 = alloca i64, align 8
  %3 = alloca i64, align 8
  store i64 %0, ptr %2, align 8
  %4 = load i64, ptr %2, align 8
  store i64 %4, ptr %3, align 8
  %5 = load i64, ptr %3, align 8
  ret i64 %5
}

; Function Attrs: mustprogress nounwind uwtable
define linkonce_odr hidden noundef i64 @_Z6untype11zoffset_end(i64 noundef %0) #1 comdat {
  %2 = alloca i64, align 8
  %3 = alloca i64, align 8
  store i64 %0, ptr %2, align 8
  %4 = load i64, ptr %2, align 8
  store i64 %4, ptr %3, align 8
  %5 = load i64, ptr %3, align 8
  ret i64 %5
}

; Function Attrs: mustprogress nounwind uwtable
define hidden void @_ZN15ZPhysicalMemory15replace_segmentEi7zoffsetmb(ptr noundef nonnull align 8 dereferenceable(16) %0, i32 noundef %1, i64 noundef %2, i64 noundef %3, i1 noundef zeroext %4) #1 align 2 {
  %6 = alloca ptr, align 8
  %7 = alloca i32, align 4
  %8 = alloca i64, align 8
  %9 = alloca i64, align 8
  %10 = alloca i8, align 1
  %11 = alloca %class.ZPhysicalMemorySegment, align 8
  store ptr %0, ptr %6, align 8
  store i32 %1, ptr %7, align 4
  store i64 %2, ptr %8, align 8
  store i64 %3, ptr %9, align 8
  %12 = zext i1 %4 to i8
  store i8 %12, ptr %10, align 1
  %13 = load ptr, ptr %6, align 8
  %14 = getelementptr inbounds %class.ZPhysicalMemory, ptr %13, i32 0, i32 0
  %15 = load i32, ptr %7, align 4
  %16 = load i64, ptr %8, align 8
  %17 = load i64, ptr %9, align 8
  %18 = load i8, ptr %10, align 1
  %19 = trunc i8 %18 to i1
  call void @_ZN22ZPhysicalMemorySegmentC2E7zoffsetmb(ptr noundef nonnull align 8 dereferenceable(17) %11, i64 noundef %16, i64 noundef %17, i1 noundef zeroext %19)
  call void @_ZN17GrowableArrayViewI22ZPhysicalMemorySegmentE6at_putEiRKS0_(ptr noundef nonnull align 8 dereferenceable(16) %14, i32 noundef %15, ptr noundef nonnull align 8 dereferenceable(17) %11)
  ret void
}

; Function Attrs: mustprogress nounwind uwtable
define hidden void @_ZN15ZPhysicalMemory14insert_segmentEi7zoffsetmb(ptr noundef nonnull align 8 dereferenceable(16) %0, i32 noundef %1, i64 noundef %2, i64 noundef %3, i1 noundef zeroext %4) #1 align 2 {
  %6 = alloca ptr, align 8
  %7 = alloca i32, align 4
  %8 = alloca i64, align 8
  %9 = alloca i64, align 8
  %10 = alloca i8, align 1
  %11 = alloca %class.ZPhysicalMemorySegment, align 8
  store ptr %0, ptr %6, align 8
  store i32 %1, ptr %7, align 4
  store i64 %2, ptr %8, align 8
  store i64 %3, ptr %9, align 8
  %12 = zext i1 %4 to i8
  store i8 %12, ptr %10, align 1
  %13 = load ptr, ptr %6, align 8
  %14 = getelementptr inbounds %class.ZPhysicalMemory, ptr %13, i32 0, i32 0
  %15 = load i32, ptr %7, align 4
  %16 = load i64, ptr %8, align 8
  %17 = load i64, ptr %9, align 8
  %18 = load i8, ptr %10, align 1
  %19 = trunc i8 %18 to i1
  call void @_ZN22ZPhysicalMemorySegmentC2E7zoffsetmb(ptr noundef nonnull align 8 dereferenceable(17) %11, i64 noundef %16, i64 noundef %17, i1 noundef zeroext %19)
  call void @_ZN26GrowableArrayWithAllocatorI22ZPhysicalMemorySegment18GrowableArrayCHeapIS0_L8MEMFLAGS5EEE13insert_beforeEiRKS0_(ptr noundef nonnull align 8 dereferenceable(16) %14, i32 noundef %15, ptr noundef nonnull align 8 dereferenceable(17) %11)
  ret void
}

; Function Attrs: mustprogress nounwind uwtable
define linkonce_odr hidden noundef i64 @_Zpl7zoffsetm(i64 noundef %0, i64 noundef %1) #1 comdat {
  %3 = alloca i64, align 8
  %4 = alloca i64, align 8
  store i64 %0, ptr %3, align 8
  store i64 %1, ptr %4, align 8
  %5 = load i64, ptr %3, align 8
  %6 = call noundef i64 @_Z6untype7zoffset(i64 noundef %5)
  %7 = load i64, ptr %4, align 8
  %8 = add i64 %6, %7
  %9 = call noundef i64 @_Z10to_zoffsetm(i64 noundef %8)
  ret i64 %9
}

; Function Attrs: mustprogress nounwind uwtable
define linkonce_odr hidden void @_ZN22ZPhysicalMemorySegment13set_committedEb(ptr noundef nonnull align 8 dereferenceable(17) %0, i1 noundef zeroext %1) #1 comdat align 2 {
  %3 = alloca ptr, align 8
  %4 = alloca i8, align 1
  store ptr %0, ptr %3, align 8
  %5 = zext i1 %1 to i8
  store i8 %5, ptr %4, align 1
  %6 = load ptr, ptr %3, align 8
  %7 = load i8, ptr %4, align 1
  %8 = trunc i8 %7 to i1
  %9 = getelementptr inbounds %class.ZPhysicalMemorySegment, ptr %6, i32 0, i32 2
  %10 = zext i1 %8 to i8
  store i8 %10, ptr %9, align 8
  ret void
}

; Function Attrs: mustprogress nounwind uwtable
define linkonce_odr hidden noundef nonnull align 8 dereferenceable(17) ptr @_ZN17GrowableArrayViewI22ZPhysicalMemorySegmentE2atEi(ptr noundef nonnull align 8 dereferenceable(16) %0, i32 noundef %1) #1 comdat align 2 {
  %3 = alloca ptr, align 8
  %4 = alloca i32, align 4
  store ptr %0, ptr %3, align 8
  store i32 %1, ptr %4, align 4
  %5 = load ptr, ptr %3, align 8
  %6 = getelementptr inbounds %class.GrowableArrayView, ptr %5, i32 0, i32 1
  %7 = load ptr, ptr %6, align 8
  %8 = load i32, ptr %4, align 4
  %9 = sext i32 %8 to i64
  %10 = getelementptr inbounds %class.ZPhysicalMemorySegment, ptr %7, i64 %9
  ret ptr %10
}

; Function Attrs: mustprogress nounwind uwtable
define linkonce_odr hidden noundef i64 @_Zmi11zoffset_end7zoffset(i64 noundef %0, i64 noundef %1) #1 comdat {
  %3 = alloca i64, align 8
  %4 = alloca i64, align 8
  store i64 %0, ptr %3, align 8
  store i64 %1, ptr %4, align 8
  %5 = load i64, ptr %3, align 8
  %6 = call noundef i64 @_Z6untype11zoffset_end(i64 noundef %5)
  %7 = load i64, ptr %4, align 8
  %8 = call noundef i64 @_Z6untype7zoffset(i64 noundef %7)
  %9 = sub i64 %6, %8
  ret i64 %9
}

; Function Attrs: mustprogress nounwind uwtable
define linkonce_odr hidden noundef nonnull align 8 dereferenceable(17) ptr @_ZNK17GrowableArrayViewI22ZPhysicalMemorySegmentE2atEi(ptr noundef nonnull align 8 dereferenceable(16) %0, i32 noundef %1) #1 comdat align 2 {
  %3 = alloca ptr, align 8
  %4 = alloca i32, align 4
  store ptr %0, ptr %3, align 8
  store i32 %1, ptr %4, align 4
  %5 = load ptr, ptr %3, align 8
  %6 = getelementptr inbounds %class.GrowableArrayView, ptr %5, i32 0, i32 1
  %7 = load ptr, ptr %6, align 8
  %8 = load i32, ptr %4, align 4
  %9 = sext i32 %8 to i64
  %10 = getelementptr inbounds %class.ZPhysicalMemorySegment, ptr %7, i64 %9
  ret ptr %10
}

; Function Attrs: mustprogress nounwind uwtable
define linkonce_odr hidden noundef i32 @_ZNK17GrowableArrayBase6lengthEv(ptr noundef nonnull align 4 dereferenceable(8) %0) #1 comdat align 2 {
  %2 = alloca ptr, align 8
  store ptr %0, ptr %2, align 8
  %3 = load ptr, ptr %2, align 8
  %4 = getelementptr inbounds %class.GrowableArrayBase, ptr %3, i32 0, i32 0
  %5 = load i32, ptr %4, align 4
  ret i32 %5
}

; Function Attrs: mustprogress nounwind uwtable
define hidden noundef zeroext i1 @_ZN15ZPhysicalMemory14commit_segmentEim(ptr noundef nonnull align 8 dereferenceable(16) %0, i32 noundef %1, i64 noundef %2) #1 align 2 {
  %4 = alloca i1, align 1
  %5 = alloca ptr, align 8
  %6 = alloca i32, align 4
  %7 = alloca i64, align 8
  store ptr %0, ptr %5, align 8
  store i32 %1, ptr %6, align 4
  store i64 %2, ptr %7, align 8
  %8 = load ptr, ptr %5, align 8
  %9 = load i64, ptr %7, align 8
  %10 = getelementptr inbounds %class.ZPhysicalMemory, ptr %8, i32 0, i32 0
  %11 = load i32, ptr %6, align 4
  %12 = call noundef nonnull align 8 dereferenceable(17) ptr @_ZN17GrowableArrayViewI22ZPhysicalMemorySegmentE2atEi(ptr noundef nonnull align 8 dereferenceable(16) %10, i32 noundef %11)
  %13 = call noundef i64 @_ZNK22ZPhysicalMemorySegment4sizeEv(ptr noundef nonnull align 8 dereferenceable(17) %12)
  %14 = icmp eq i64 %9, %13
  br i1 %14, label %15, label %19

15:                                               ; preds = %3
  %16 = getelementptr inbounds %class.ZPhysicalMemory, ptr %8, i32 0, i32 0
  %17 = load i32, ptr %6, align 4
  %18 = call noundef nonnull align 8 dereferenceable(17) ptr @_ZN17GrowableArrayViewI22ZPhysicalMemorySegmentE2atEi(ptr noundef nonnull align 8 dereferenceable(16) %16, i32 noundef %17)
  call void @_ZN22ZPhysicalMemorySegment13set_committedEb(ptr noundef nonnull align 8 dereferenceable(17) %18, i1 noundef zeroext true)
  store i1 true, ptr %4, align 1
  br label %44

19:                                               ; preds = %3
  %20 = load i64, ptr %7, align 8
  %21 = icmp ugt i64 %20, 0
  br i1 %21, label %22, label %43

22:                                               ; preds = %19
  %23 = load i32, ptr %6, align 4
  %24 = add nsw i32 %23, 1
  %25 = getelementptr inbounds %class.ZPhysicalMemory, ptr %8, i32 0, i32 0
  %26 = load i32, ptr %6, align 4
  %27 = call noundef nonnull align 8 dereferenceable(17) ptr @_ZN17GrowableArrayViewI22ZPhysicalMemorySegmentE2atEi(ptr noundef nonnull align 8 dereferenceable(16) %25, i32 noundef %26)
  %28 = call noundef i64 @_ZNK22ZPhysicalMemorySegment5startEv(ptr noundef nonnull align 8 dereferenceable(17) %27)
  %29 = load i64, ptr %7, align 8
  %30 = call noundef i64 @_Zpl7zoffsetm(i64 noundef %28, i64 noundef %29)
  %31 = getelementptr inbounds %class.ZPhysicalMemory, ptr %8, i32 0, i32 0
  %32 = load i32, ptr %6, align 4
  %33 = call noundef nonnull align 8 dereferenceable(17) ptr @_ZN17GrowableArrayViewI22ZPhysicalMemorySegmentE2atEi(ptr noundef nonnull align 8 dereferenceable(16) %31, i32 noundef %32)
  %34 = call noundef i64 @_ZNK22ZPhysicalMemorySegment4sizeEv(ptr noundef nonnull align 8 dereferenceable(17) %33)
  %35 = load i64, ptr %7, align 8
  %36 = sub i64 %34, %35
  call void @_ZN15ZPhysicalMemory14insert_segmentEi7zoffsetmb(ptr noundef nonnull align 8 dereferenceable(16) %8, i32 noundef %24, i64 noundef %30, i64 noundef %36, i1 noundef zeroext false)
  %37 = load i32, ptr %6, align 4
  %38 = getelementptr inbounds %class.ZPhysicalMemory, ptr %8, i32 0, i32 0
  %39 = load i32, ptr %6, align 4
  %40 = call noundef nonnull align 8 dereferenceable(17) ptr @_ZN17GrowableArrayViewI22ZPhysicalMemorySegmentE2atEi(ptr noundef nonnull align 8 dereferenceable(16) %38, i32 noundef %39)
  %41 = call noundef i64 @_ZNK22ZPhysicalMemorySegment5startEv(ptr noundef nonnull align 8 dereferenceable(17) %40)
  %42 = load i64, ptr %7, align 8
  call void @_ZN15ZPhysicalMemory15replace_segmentEi7zoffsetmb(ptr noundef nonnull align 8 dereferenceable(16) %8, i32 noundef %37, i64 noundef %41, i64 noundef %42, i1 noundef zeroext true)
  br label %43

43:                                               ; preds = %22, %19
  store i1 false, ptr %4, align 1
  br label %44

44:                                               ; preds = %43, %15
  %45 = load i1, ptr %4, align 1
  ret i1 %45
}

; Function Attrs: mustprogress nounwind uwtable
define linkonce_odr hidden noundef i64 @_ZNK22ZPhysicalMemorySegment4sizeEv(ptr noundef nonnull align 8 dereferenceable(17) %0) #1 comdat align 2 {
  %2 = alloca ptr, align 8
  store ptr %0, ptr %2, align 8
  %3 = load ptr, ptr %2, align 8
  %4 = getelementptr inbounds %class.ZPhysicalMemorySegment, ptr %3, i32 0, i32 1
  %5 = load i64, ptr %4, align 8
  %6 = getelementptr inbounds %class.ZPhysicalMemorySegment, ptr %3, i32 0, i32 0
  %7 = load i64, ptr %6, align 8
  %8 = call noundef i64 @_Zmi11zoffset_end7zoffset(i64 noundef %5, i64 noundef %7)
  ret i64 %8
}

; Function Attrs: mustprogress nounwind uwtable
define linkonce_odr hidden noundef i64 @_ZNK22ZPhysicalMemorySegment5startEv(ptr noundef nonnull align 8 dereferenceable(17) %0) #1 comdat align 2 {
  %2 = alloca ptr, align 8
  store ptr %0, ptr %2, align 8
  %3 = load ptr, ptr %2, align 8
  %4 = getelementptr inbounds %class.ZPhysicalMemorySegment, ptr %3, i32 0, i32 0
  %5 = load i64, ptr %4, align 8
  ret i64 %5
}

; Function Attrs: mustprogress nounwind uwtable
define linkonce_odr hidden noundef zeroext i1 @_ZNK22ZPhysicalMemorySegment12is_committedEv(ptr noundef nonnull align 8 dereferenceable(17) %0) #1 comdat align 2 {
  %2 = alloca ptr, align 8
  store ptr %0, ptr %2, align 8
  %3 = load ptr, ptr %2, align 8
  %4 = getelementptr inbounds %class.ZPhysicalMemorySegment, ptr %3, i32 0, i32 2
  %5 = load i8, ptr %4, align 8
  %6 = trunc i8 %5 to i1
  ret i1 %6
}

; Function Attrs: mustprogress nounwind uwtable
define linkonce_odr hidden noundef nonnull align 8 dereferenceable(17) ptr @_ZNK15ZPhysicalMemory7segmentEi(ptr noundef nonnull align 8 dereferenceable(16) %0, i32 noundef %1) #1 comdat align 2 {
  %3 = alloca ptr, align 8
  %4 = alloca i32, align 4
  store ptr %0, ptr %3, align 8
  store i32 %1, ptr %4, align 4
  %5 = load ptr, ptr %3, align 8
  %6 = getelementptr inbounds %class.ZPhysicalMemory, ptr %5, i32 0, i32 0
  %7 = load i32, ptr %4, align 4
  %8 = call noundef nonnull align 8 dereferenceable(17) ptr @_ZNK17GrowableArrayViewI22ZPhysicalMemorySegmentE2atEi(ptr noundef nonnull align 8 dereferenceable(16) %6, i32 noundef %7)
  ret ptr %8
}

; Function Attrs: mustprogress nounwind uwtable
define linkonce_odr hidden noundef i32 @_ZNK15ZPhysicalMemory9nsegmentsEv(ptr noundef nonnull align 8 dereferenceable(16) %0) #1 comdat align 2 {
  %2 = alloca ptr, align 8
  store ptr %0, ptr %2, align 8
  %3 = load ptr, ptr %2, align 8
  %4 = getelementptr inbounds %class.ZPhysicalMemory, ptr %3, i32 0, i32 0
  %5 = call noundef i32 @_ZNK17GrowableArrayBase6lengthEv(ptr noundef nonnull align 4 dereferenceable(8) %4)
  ret i32 %5
}

; Function Attrs: mustprogress nounwind uwtable
define hidden noundef zeroext i1 @_ZN22ZPhysicalMemoryManager6commitER15ZPhysicalMemory(ptr noundef nonnull align 8 dereferenceable(160) %0, ptr noundef nonnull align 8 dereferenceable(16) %1) #1 align 2 {
  %3 = alloca i1, align 1
  %4 = alloca ptr, align 8
  %5 = alloca ptr, align 8
  %6 = alloca i32, align 4
  %7 = alloca ptr, align 8
  %8 = alloca i64, align 8
  store ptr %0, ptr %4, align 8
  store ptr %1, ptr %5, align 8
  %9 = load ptr, ptr %4, align 8
  store i32 0, ptr %6, align 4
  br label %10

10:                                               ; preds = %42, %2
  %11 = load i32, ptr %6, align 4
  %12 = load ptr, ptr %5, align 8
  %13 = call noundef i32 @_ZNK15ZPhysicalMemory9nsegmentsEv(ptr noundef nonnull align 8 dereferenceable(16) %12)
  %14 = icmp slt i32 %11, %13
  br i1 %14, label %15, label %45

15:                                               ; preds = %10
  %16 = load ptr, ptr %5, align 8
  %17 = load i32, ptr %6, align 4
  %18 = call noundef nonnull align 8 dereferenceable(17) ptr @_ZNK15ZPhysicalMemory7segmentEi(ptr noundef nonnull align 8 dereferenceable(16) %16, i32 noundef %17)
  store ptr %18, ptr %7, align 8
  %19 = load ptr, ptr %7, align 8
  %20 = call noundef zeroext i1 @_ZNK22ZPhysicalMemorySegment12is_committedEv(ptr noundef nonnull align 8 dereferenceable(17) %19)
  br i1 %20, label %21, label %22

21:                                               ; preds = %15
  br label %42

22:                                               ; preds = %15
  %23 = getelementptr inbounds %class.ZPhysicalMemoryManager, ptr %9, i32 0, i32 0
  %24 = load ptr, ptr %7, align 8
  %25 = call noundef i64 @_ZNK22ZPhysicalMemorySegment5startEv(ptr noundef nonnull align 8 dereferenceable(17) %24)
  %26 = load ptr, ptr %7, align 8
  %27 = call noundef i64 @_ZNK22ZPhysicalMemorySegment4sizeEv(ptr noundef nonnull align 8 dereferenceable(17) %26)
  %28 = call noundef i64 @_ZNK22ZPhysicalMemoryBacking6commitE7zoffsetm(ptr noundef nonnull align 8 dereferenceable(41) %23, i64 noundef %25, i64 noundef %27)
  store i64 %28, ptr %8, align 8
  %29 = load i64, ptr %8, align 8
  %30 = icmp ugt i64 %29, 0
  br i1 %30, label %31, label %35

31:                                               ; preds = %22
  %32 = load ptr, ptr %7, align 8
  %33 = call noundef i64 @_ZNK22ZPhysicalMemorySegment5startEv(ptr noundef nonnull align 8 dereferenceable(17) %32)
  %34 = load i64, ptr %8, align 8
  call void @_ZN4ZNMT6commitE7zoffsetm(i64 noundef %33, i64 noundef %34)
  br label %35

35:                                               ; preds = %31, %22
  %36 = load ptr, ptr %5, align 8
  %37 = load i32, ptr %6, align 4
  %38 = load i64, ptr %8, align 8
  %39 = call noundef zeroext i1 @_ZN15ZPhysicalMemory14commit_segmentEim(ptr noundef nonnull align 8 dereferenceable(16) %36, i32 noundef %37, i64 noundef %38)
  br i1 %39, label %41, label %40

40:                                               ; preds = %35
  store i1 false, ptr %3, align 1
  br label %46

41:                                               ; preds = %35
  br label %42

42:                                               ; preds = %41, %21
  %43 = load i32, ptr %6, align 4
  %44 = add nsw i32 %43, 1
  store i32 %44, ptr %6, align 4
  br label %10, !llvm.loop !14

45:                                               ; preds = %10
  store i1 true, ptr %3, align 1
  br label %46

46:                                               ; preds = %45, %40
  %47 = load i1, ptr %3, align 1
  ret i1 %47
}