; Function Attrs: mustprogress nounwind uwtable
define hidden noundef zeroext i1 @_ZN22ZPhysicalMemoryManager6commitER15ZPhysicalMemory(ptr noundef nonnull align 8 dereferenceable(160) %0, ptr noundef nonnull align 8 dereferenceable(16) %1) local_unnamed_addr #1 align 2 {
  %3 = alloca %class.ZPhysicalMemorySegment, align 8
  %4 = load i32, ptr %1, align 8
  %5 = icmp slt i32 %4, 1
  br i1 %5, label %_ZN15ZPhysicalMemory14commit_segmentEim.exit.thread, label %.lr.ph

.lr.ph:                                           ; preds = %2
  %6 = getelementptr inbounds i8, ptr %1, i64 8
  br label %7

7:                                                ; preds = %.lr.ph, %44
  %8 = phi i32 [ %4, %.lr.ph ], [ %45, %44 ]
  %indvars.iv = phi i64 [ 0, %.lr.ph ], [ %indvars.iv.next, %44 ]
  %9 = load ptr, ptr %6, align 8
  %10 = getelementptr inbounds %class.ZPhysicalMemorySegment, ptr %9, i64 %indvars.iv
  %11 = getelementptr inbounds i8, ptr %10, i64 16
  %12 = load i8, ptr %11, align 8
  %13 = trunc i8 %12 to i1
  br i1 %13, label %44, label %14

14:                                               ; preds = %7
  %15 = load i64, ptr %10, align 8
  %16 = getelementptr inbounds i8, ptr %10, i64 8
  %17 = load i64, ptr %16, align 8
  %18 = sub i64 %17, %15
  %19 = tail call noundef i64 @_ZNK22ZPhysicalMemoryBacking6commitE7zoffsetm(ptr noundef nonnull align 8 dereferenceable(41) %0, i64 noundef %15, i64 noundef %18) #12
  %.not = icmp eq i64 %19, 0
  br i1 %.not, label %20, label %.thread

20:                                               ; preds = %14
  %21 = load ptr, ptr %6, align 8
  %22 = getelementptr inbounds %class.ZPhysicalMemorySegment, ptr %21, i64 %indvars.iv
  %23 = getelementptr inbounds i8, ptr %22, i64 8
  %24 = load i64, ptr %23, align 8
  %25 = load i64, ptr %22, align 8
  %26 = icmp eq i64 %24, %25
  br i1 %26, label %_ZN15ZPhysicalMemory14commit_segmentEim.exit.thread19, label %_ZN15ZPhysicalMemory14commit_segmentEim.exit.thread

.thread:                                          ; preds = %14
  %27 = load i64, ptr %10, align 8
  tail call void @_ZN4ZNMT6commitE7zoffsetm(i64 noundef %27, i64 noundef %19) #12
  %28 = load ptr, ptr %6, align 8
  %29 = getelementptr inbounds %class.ZPhysicalMemorySegment, ptr %28, i64 %indvars.iv
  %30 = getelementptr inbounds i8, ptr %29, i64 8
  %31 = load i64, ptr %30, align 8
  %32 = load i64, ptr %29, align 8
  %33 = sub i64 %31, %32
  %34 = icmp eq i64 %33, %19
  br i1 %34, label %_ZN15ZPhysicalMemory14commit_segmentEim.exit.thread19, label %_ZN15ZPhysicalMemory14commit_segmentEim.exit

_ZN15ZPhysicalMemory14commit_segmentEim.exit.thread19: ; preds = %20, %.thread
  %.ph18 = phi ptr [ %28, %.thread ], [ %21, %20 ]
  %.sroa.3.0..sroa_idx.i.i20 = getelementptr inbounds %class.ZPhysicalMemorySegment, ptr %.ph18, i64 %indvars.iv, i32 2
  store i8 1, ptr %.sroa.3.0..sroa_idx.i.i20, align 8
  %.pre = load i32, ptr %1, align 8
  br label %44

_ZN15ZPhysicalMemory14commit_segmentEim.exit:     ; preds = %.thread
  %35 = trunc nuw nsw i64 %indvars.iv to i32
  %36 = add nuw nsw i32 %35, 1
  %37 = add i64 %32, %19
  call void @llvm.lifetime.start.p0(i64 24, ptr nonnull %3)
  store i64 %37, ptr %3, align 8
  %38 = getelementptr inbounds i8, ptr %3, i64 8
  store i64 %31, ptr %38, align 8
  %39 = getelementptr inbounds i8, ptr %3, i64 16
  store i8 0, ptr %39, align 8
  call void @_ZN26GrowableArrayWithAllocatorI22ZPhysicalMemorySegment18GrowableArrayCHeapIS0_L8MEMFLAGS5EEE13insert_beforeEiRKS0_(ptr noundef nonnull align 8 dereferenceable(16) %1, i32 noundef %36, ptr noundef nonnull align 8 dereferenceable(17) %3)
  call void @llvm.lifetime.end.p0(i64 24, ptr nonnull %3)
  %40 = load ptr, ptr %6, align 8
  %41 = getelementptr inbounds %class.ZPhysicalMemorySegment, ptr %40, i64 %indvars.iv
  %42 = load i64, ptr %41, align 8
  %43 = add i64 %42, %19
  %.sroa.2.0..sroa_idx.i.i = getelementptr inbounds i8, ptr %41, i64 8
  store i64 %43, ptr %.sroa.2.0..sroa_idx.i.i, align 8
  %.sroa.3.0..sroa_idx.i.i = getelementptr inbounds %class.ZPhysicalMemorySegment, ptr %40, i64 %indvars.iv, i32 2
  store i8 1, ptr %.sroa.3.0..sroa_idx.i.i, align 8
  br label %_ZN15ZPhysicalMemory14commit_segmentEim.exit.thread

44:                                               ; preds = %_ZN15ZPhysicalMemory14commit_segmentEim.exit.thread19, %7
  %45 = phi i32 [ %.pre, %_ZN15ZPhysicalMemory14commit_segmentEim.exit.thread19 ], [ %8, %7 ]
  %indvars.iv.next = add nuw nsw i64 %indvars.iv, 1
  %46 = sext i32 %45 to i64
  %.not39 = icmp slt i64 %indvars.iv.next, %46
  br i1 %.not39, label %7, label %_ZN15ZPhysicalMemory14commit_segmentEim.exit.thread, !llvm.loop !16

_ZN15ZPhysicalMemory14commit_segmentEim.exit.thread: ; preds = %44, %20, %2, %_ZN15ZPhysicalMemory14commit_segmentEim.exit
  %47 = phi i1 [ false, %_ZN15ZPhysicalMemory14commit_segmentEim.exit ], [ true, %2 ], [ true, %44 ], [ false, %20 ]
  ret i1 %47
}